; Function Attrs: nounwind uwtable
define void @H5AC_set_ring(i32 noundef %0, ptr noundef writeonly captures(address_is_null) %1) local_unnamed_addr #4 {
  %3 = load i8, ptr @H5AC_init_g, align 1, !tbaa !3, !range !7, !noundef !8
  %4 = trunc nuw i8 %3 to i1
  %5 = load i8, ptr @H5_libterm_g, align 1, !range !7
  %6 = trunc nuw i8 %5 to i1
  %7 = xor i1 %6, true
  %8 = select i1 %4, i1 true, i1 %7
  br i1 %8, label %9, label %13, !prof !9

9:                                                ; preds = %2
  %.not = icmp eq ptr %1, null
  br i1 %.not, label %12, label %10

10:                                               ; preds = %9
  %11 = tail call i32 @H5CX_get_ring() #8
  store i32 %11, ptr %1, align 4, !tbaa !118
  br label %12

12:                                               ; preds = %10, %9
  tail call void @H5CX_set_ring(i32 noundef %0) #8
  br label %13

13:                                               ; preds = %12, %2
  ret void
}